target datalayout = "e-m:e-p270:32:32-p271:32:32-p272:64:64-i64:64-i128:128-f80:128-n8:16:32:64-S128"
target triple = "x86_64-pc-linux-gnu"

%"class.base::Pickle" = type { ptr, ptr, i64, i64, i64 }
%"struct.base::Pickle::Header" = type { i32 }

; Function Attrs: mustprogress uwtable
define void @_ZN4base6PickleC2Ev(ptr noundef nonnull align 8 dereferenceable(40) %0) unnamed_addr #0 align 2 {
  %2 = alloca ptr, align 8
  store ptr %0, ptr %2, align 8, !tbaa !21
  %3 = load ptr, ptr %2, align 8
  store ptr getelementptr inbounds inrange(-16, 40) ({ [7 x ptr] }, ptr @_ZTVN4base6PickleE, i32 0, i32 0, i32 2), ptr %3, align 8, !tbaa !75
  %4 = getelementptr inbounds nuw %"class.base::Pickle", ptr %3, i32 0, i32 1
  store ptr null, ptr %4, align 8, !tbaa !32
  %5 = getelementptr inbounds nuw %"class.base::Pickle", ptr %3, i32 0, i32 2
  store i64 4, ptr %5, align 8, !tbaa !35
  %6 = getelementptr inbounds nuw %"class.base::Pickle", ptr %3, i32 0, i32 3
  store i64 0, ptr %6, align 8, !tbaa !79
  %7 = getelementptr inbounds nuw %"class.base::Pickle", ptr %3, i32 0, i32 4
  store i64 0, ptr %7, align 8, !tbaa !80
  call void @_ZN4base6Pickle6ResizeEm(ptr noundef nonnull align 8 dereferenceable(40) %3, i64 noundef 64)
  %8 = getelementptr inbounds nuw %"class.base::Pickle", ptr %3, i32 0, i32 1
  %9 = load ptr, ptr %8, align 8, !tbaa !32
  %10 = getelementptr inbounds nuw %"struct.base::Pickle::Header", ptr %9, i32 0, i32 0
  store i32 0, ptr %10, align 4, !tbaa !36
  ret void
}