; Function Attrs: mustprogress uwtable
define void @_ZN4base6PickleC2Ev(ptr noundef nonnull align 8 dereferenceable(40) initializes((0, 40)) %0) unnamed_addr #0 align 2 {
  store ptr getelementptr inbounds nuw inrange(-16, 40) (i8, ptr @_ZTVN4base6PickleE, i64 16), ptr %0, align 8, !tbaa !44
  %2 = getelementptr inbounds nuw i8, ptr %0, i64 8
  store ptr null, ptr %2, align 8, !tbaa !13
  %3 = getelementptr inbounds nuw i8, ptr %0, i64 16
  store i64 4, ptr %3, align 8, !tbaa !14
  %4 = getelementptr inbounds nuw i8, ptr %0, i64 24
  tail call void @llvm.memset.p0.i64(ptr noundef nonnull align 8 dereferenceable(16) %4, i8 0, i64 16, i1 false)
  tail call void @_ZN4base6Pickle6ResizeEm(ptr noundef nonnull align 8 dereferenceable(40) %0, i64 noundef 64)
  %5 = load ptr, ptr %2, align 8, !tbaa !13
  store i32 0, ptr %5, align 4, !tbaa !15
  ret void
}